	.file	"helloworld-labelall.bc"
	.section	.text.startup,"ax",@progbits
	.align	16, 0x90
	.type	__cxx_global_var_init,@function
__cxx_global_var_init:                  # @__cxx_global_var_init
.Lfunc_begin0:
	.loc	5 75 0                  # /usr/lib/gcc/x86_64-linux-gnu/4.7/../../../../include/c++/4.7/iostream:75:0
	.cfi_startproc
# BB#0:                                 # %entry
	.loc	5 75 0 prologue_end     # /usr/lib/gcc/x86_64-linux-gnu/4.7/../../../../include/c++/4.7/iostream:75:0
	pushq	%rax
.Ltmp1:
	.cfi_def_cfa_offset 16
	movl	$_ZStL8__ioinit, %edi
	callq	_ZNSt8ios_base4InitC1Ev
	movl	$_ZNSt8ios_base4InitD1Ev, %edi
	movl	$_ZStL8__ioinit, %esi
	movl	$__dso_handle, %edx
	popq	%rax
	jmp	__cxa_atexit            # TAILCALL
.Ltmp2:
.Ltmp3:
	.size	__cxx_global_var_init, .Ltmp3-__cxx_global_var_init
.Lfunc_end0:
	.cfi_endproc

	.text
	.globl	main
	.align	16, 0x90
	.type	main,@function
main:                                   # @main
.Lfunc_begin1:
	.loc	1 4 0                   # helloworld.cpp:4:0
	.cfi_startproc
# BB#0:                                 # %entry
	pushq	%rbp
.Ltmp6:
	.cfi_def_cfa_offset 16
.Ltmp7:
	.cfi_offset %rbp, -16
	movq	%rsp, %rbp
.Ltmp8:
	.cfi_def_cfa_register %rbp
	.loc	1 7 0 prologue_end      # helloworld.cpp:7:0
.Ltmp9:
	movl	$_ZSt4cout, %edi
	movl	$.L.str, %esi
"LABEL:helloworld.bc:5:7":
	callq	_ZStlsISt11char_traitsIcEERSt13basic_ostreamIcT_ES5_PKc
	xorl	%eax, %eax
	.loc	1 8 0                   # helloworld.cpp:8:0
	popq	%rbp
	retq
.Ltmp10:
.Ltmp11:
	.size	main, .Ltmp11-main
.Lfunc_end1:
	.cfi_endproc

	.section	.text.startup,"ax",@progbits
	.align	16, 0x90
	.type	_GLOBAL__I_a,@function
_GLOBAL__I_a:                           # @_GLOBAL__I_a
.Lfunc_begin2:
	.loc	1 9 0                   # helloworld.cpp:9:0
	.cfi_startproc
# BB#0:                                 # %entry
	pushq	%rbp
.Ltmp14:
	.cfi_def_cfa_offset 16
.Ltmp15:
	.cfi_offset %rbp, -16
	movq	%rsp, %rbp
.Ltmp16:
	.cfi_def_cfa_register %rbp
	.loc	1 9 0 prologue_end      # helloworld.cpp:9:0
.Ltmp17:
	popq	%rbp
	jmp	__cxx_global_var_init   # TAILCALL
.Ltmp18:
.Ltmp19:
	.size	_GLOBAL__I_a, .Ltmp19-_GLOBAL__I_a
.Lfunc_end2:
	.cfi_endproc

	.type	_ZStL8__ioinit,@object  # @_ZStL8__ioinit
	.local	_ZStL8__ioinit
	.comm	_ZStL8__ioinit,1,1
	.type	.L.str,@object          # @.str
	.section	.rodata.str1.1,"aMS",@progbits,1
.L.str:
	.asciz	"Hello World"
	.size	.L.str, 12

	.section	.init_array,"aw",@init_array
	.align	8
	.quad	_GLOBAL__I_a
	.section	.text.startup,"ax",@progbits
.Ldebug_end1:
	.text
.Ldebug_end2:
	.section	".note.GNU-stack","",@progbits
